; Function Attrs: nounwind uwtable
define void @dt_dev_pixelpipe_cache_flush(ptr noundef %0) local_unnamed_addr #0 {
  %2 = load i32, ptr %0, align 8, !tbaa !6
  %3 = icmp sgt i32 %2, 2
  br i1 %3, label %.lr.ph.i, label %dt_dev_pixelpipe_cache_invalidate_later.exit

.lr.ph.i:                                         ; preds = %1
  %4 = getelementptr inbounds nuw i8, ptr %0, i64 64
  %5 = load ptr, ptr %4, align 8, !tbaa !24
  %6 = getelementptr inbounds nuw i8, ptr %0, i64 48
  br label %7

._crit_edge.i:                                    ; preds = %17
  %.not.i = icmp eq i32 %.1.i, 0
  br i1 %.not.i, label %dt_dev_pixelpipe_cache_invalidate_later.exit, label %21

7:                                                ; preds = %17, %.lr.ph.i
  %8 = phi i32 [ %2, %.lr.ph.i ], [ %18, %17 ]
  %indvars.iv.i = phi i64 [ 2, %.lr.ph.i ], [ %indvars.iv.next.i, %17 ]
  %.01622.i = phi i32 [ 0, %.lr.ph.i ], [ %.1.i, %17 ]
  %9 = getelementptr inbounds nuw i32, ptr %5, i64 %indvars.iv.i
  %10 = load i32, ptr %9, align 4, !tbaa !26
  %.not19.i = icmp slt i32 %10, 0
  br i1 %.not19.i, label %17, label %11

11:                                               ; preds = %7
  %12 = load ptr, ptr %6, align 8, !tbaa !22
  %13 = getelementptr inbounds nuw i64, ptr %12, i64 %indvars.iv.i
  %14 = load i64, ptr %13, align 8, !tbaa !25
  %.not20.i = icmp eq i64 %14, 0
  br i1 %.not20.i, label %17, label %15

15:                                               ; preds = %11
  store i64 0, ptr %13, align 8, !tbaa !25
  store i32 0, ptr %9, align 4, !tbaa !26
  %16 = add nsw i32 %.01622.i, 1
  %.pre.i = load i32, ptr %0, align 8, !tbaa !6
  br label %17

17:                                               ; preds = %15, %11, %7
  %18 = phi i32 [ %.pre.i, %15 ], [ %8, %11 ], [ %8, %7 ]
  %.1.i = phi i32 [ %16, %15 ], [ %.01622.i, %11 ], [ %.01622.i, %7 ]
  %indvars.iv.next.i = add nuw nsw i64 %indvars.iv.i, 1
  %19 = sext i32 %18 to i64
  %20 = icmp slt i64 %indvars.iv.next.i, %19
  br i1 %20, label %7, label %._crit_edge.i

21:                                               ; preds = %._crit_edge.i
  %22 = load i32, ptr getelementptr inbounds nuw (i8, ptr @darktable, i64 8), align 8, !tbaa !48
  %23 = and i32 %22, 33554432
  %.not17.i = icmp eq i32 %23, 0
  br i1 %.not17.i, label %dt_dev_pixelpipe_cache_invalidate_later.exit, label %24

24:                                               ; preds = %21
  tail call void (ptr, ptr, ptr, i32, ptr, ptr, ptr, ...) @dt_print_pipe_ext(ptr noundef nonnull @.str.9, ptr noundef nonnull %0, ptr noundef null, i32 noundef -2, ptr noundef null, ptr noundef null, ptr noundef nonnull @.str.10, i32 noundef %.1.i, i32 noundef 0)
  br label %dt_dev_pixelpipe_cache_invalidate_later.exit

dt_dev_pixelpipe_cache_invalidate_later.exit:     ; preds = %1, %._crit_edge.i, %21, %24
  ret void
}